; ModuleID = 'source-C-CXX/54/1723.cpp'
source_filename = "source-C-CXX/54/1723.cpp"
target datalayout = "e-m:e-p270:32:32-p271:32:32-p272:64:64-i64:64-f80:128-n8:16:32:64-S128"
target triple = "x86_64-pc-linux-gnu"

%"class.std::ios_base::Init" = type { i8 }
%"class.std::basic_istream" = type { i32 (...)**, i64, %"class.std::basic_ios" }
%"class.std::basic_ios" = type { %"class.std::ios_base", %"class.std::basic_ostream"*, i8, i8, %"class.std::basic_streambuf"*, %"class.std::ctype"*, %"class.std::num_put"*, %"class.std::num_get"* }
%"class.std::ios_base" = type { i32 (...)**, i64, i64, i32, i32, i32, %"struct.std::ios_base::_Callback_list"*, %"struct.std::ios_base::_Words", [8 x %"struct.std::ios_base::_Words"], i32, %"struct.std::ios_base::_Words"*, %"class.std::locale" }
%"struct.std::ios_base::_Callback_list" = type { %"struct.std::ios_base::_Callback_list"*, void (i32, %"class.std::ios_base"*, i32)*, i32, i32 }
%"struct.std::ios_base::_Words" = type { i8*, i64 }
%"class.std::locale" = type { %"class.std::locale::_Impl"* }
%"class.std::locale::_Impl" = type { i32, %"class.std::locale::facet"**, i64, %"class.std::locale::facet"**, i8** }
%"class.std::locale::facet" = type <{ i32 (...)**, i32, [4 x i8] }>
%"class.std::basic_ostream" = type { i32 (...)**, %"class.std::basic_ios" }
%"class.std::basic_streambuf" = type { i32 (...)**, i8*, i8*, i8*, i8*, i8*, i8*, %"class.std::locale" }
%"class.std::ctype" = type <{ %"class.std::locale::facet.base", [4 x i8], %struct.__locale_struct*, i8, [7 x i8], i32*, i32*, i16*, i8, [256 x i8], [256 x i8], i8, [6 x i8] }>
%"class.std::locale::facet.base" = type <{ i32 (...)**, i32 }>
%struct.__locale_struct = type { [13 x %struct.__locale_data*], i16*, i32*, i32*, [13 x i8*] }
%struct.__locale_data = type opaque
%"class.std::num_put" = type { %"class.std::locale::facet.base", [4 x i8] }
%"class.std::num_get" = type { %"class.std::locale::facet.base", [4 x i8] }

@_ZStL8__ioinit = internal global %"class.std::ios_base::Init" zeroinitializer, align 1
@__dso_handle = external hidden global i8
@_ZSt3cin = external global %"class.std::basic_istream", align 8
@_ZSt4cout = external global %"class.std::basic_ostream", align 8
@llvm.global_ctors = appending global [1 x { i32, void ()*, i8* }] [{ i32, void ()*, i8* } { i32 65535, void ()* @_GLOBAL__sub_I_1723.cpp, i8* null }]

declare void @_ZNSt8ios_base4InitC1Ev(%"class.std::ios_base::Init"* nonnull align 1 dereferenceable(1)) unnamed_addr #0

; Function Attrs: nounwind
declare void @_ZNSt8ios_base4InitD1Ev(%"class.std::ios_base::Init"* nonnull align 1 dereferenceable(1)) unnamed_addr #1

; Function Attrs: nofree nounwind
declare i32 @__cxa_atexit(void (i8*)*, i8*, i8*) local_unnamed_addr #2

; Function Attrs: mustprogress norecurse sspstrong uwtable
define dso_local i32 @main() local_unnamed_addr #3 {
  %1 = alloca i8, align 1
  %2 = alloca i32, align 4
  %3 = alloca i32, align 4
  %4 = alloca [110 x i8], align 16
  %5 = alloca [110 x i8], align 16
  %6 = bitcast i32* %2 to i8*
  call void @llvm.lifetime.start.p0i8(i64 4, i8* nonnull %6) #7
  %7 = bitcast i32* %3 to i8*
  call void @llvm.lifetime.start.p0i8(i64 4, i8* nonnull %7) #7
  %8 = call nonnull align 8 dereferenceable(16) %"class.std::basic_istream"* @_ZNSirsERi(%"class.std::basic_istream"* nonnull align 8 dereferenceable(16) @_ZSt3cin, i32* nonnull align 4 dereferenceable(4) %2)
  %9 = getelementptr inbounds [110 x i8], [110 x i8]* %4, i64 0, i64 0
  call void @llvm.lifetime.start.p0i8(i64 110, i8* nonnull %9) #7
  %10 = getelementptr inbounds [110 x i8], [110 x i8]* %5, i64 0, i64 0
  call void @llvm.lifetime.start.p0i8(i64 110, i8* nonnull %10) #7
  call void @_ZSt17__istream_extractRSiPcl(%"class.std::basic_istream"* nonnull align 8 dereferenceable(16) @_ZSt3cin, i8* nonnull %9, i64 110)
  %11 = call nonnull align 8 dereferenceable(16) %"class.std::basic_istream"* @_ZNSirsERi(%"class.std::basic_istream"* nonnull align 8 dereferenceable(16) @_ZSt3cin, i32* nonnull align 4 dereferenceable(4) %3)
  %12 = call i64 @strlen(i8* noundef nonnull %9) #8
  %13 = load i32, i32* %2, align 4
  %14 = icmp eq i64 %12, 0
  br i1 %14, label %15, label %18

15:                                               ; preds = %18, %0
  %16 = phi i32 [ 0, %0 ], [ %38, %18 ]
  %17 = load i32, i32* %3, align 4, !tbaa !5
  br label %41

18:                                               ; preds = %0, %18
  %19 = phi i64 [ %39, %18 ], [ 0, %0 ]
  %20 = phi i32 [ %38, %18 ], [ 0, %0 ]
  %21 = phi i32 [ %36, %18 ], [ 0, %0 ]
  %22 = getelementptr inbounds [110 x i8], [110 x i8]* %4, i64 0, i64 %19
  %23 = load i8, i8* %22, align 1, !tbaa !9
  %24 = sext i8 %23 to i32
  %25 = add i8 %23, -48
  %26 = icmp ult i8 %25, 10
  %27 = add nsw i32 %24, -48
  %28 = select i1 %26, i32 %27, i32 %21
  %29 = add i8 %23, -65
  %30 = icmp ult i8 %29, 26
  %31 = add nsw i32 %24, -55
  %32 = select i1 %30, i32 %31, i32 %28
  %33 = add i8 %23, -97
  %34 = icmp ult i8 %33, 26
  %35 = add nsw i32 %24, -87
  %36 = select i1 %34, i32 %35, i32 %32
  %37 = mul nsw i32 %13, %20
  %38 = add nsw i32 %36, %37
  %39 = add nuw nsw i64 %19, 1
  %40 = icmp eq i64 %39, %12
  br i1 %40, label %15, label %18, !llvm.loop !10

41:                                               ; preds = %15, %41
  %42 = phi i64 [ 0, %15 ], [ %51, %41 ]
  %43 = phi i32 [ %16, %15 ], [ %50, %41 ]
  %44 = srem i32 %43, %17
  %45 = trunc i32 %44 to i8
  %46 = getelementptr inbounds [110 x i8], [110 x i8]* %5, i64 0, i64 %42
  %47 = icmp sgt i8 %45, 9
  %48 = select i1 %47, i8 55, i8 48
  %49 = add i8 %48, %45
  store i8 %49, i8* %46, align 1, !tbaa !9
  %50 = sdiv i32 %43, %17
  %51 = add nuw i64 %42, 1
  %52 = icmp sgt i32 %50, 0
  br i1 %52, label %41, label %53, !llvm.loop !12

53:                                               ; preds = %41
  %54 = and i64 %42, 4294967295
  br label %56

55:                                               ; preds = %56
  call void @llvm.lifetime.end.p0i8(i64 110, i8* nonnull %10) #7
  call void @llvm.lifetime.end.p0i8(i64 110, i8* nonnull %9) #7
  call void @llvm.lifetime.end.p0i8(i64 4, i8* nonnull %7) #7
  call void @llvm.lifetime.end.p0i8(i64 4, i8* nonnull %6) #7
  ret i32 0

56:                                               ; preds = %53, %56
  %57 = phi i64 [ %54, %53 ], [ %63, %56 ]
  %58 = getelementptr inbounds [110 x i8], [110 x i8]* %5, i64 0, i64 %57
  %59 = load i8, i8* %58, align 1, !tbaa !9
  call void @llvm.lifetime.start.p0i8(i64 1, i8* nonnull %1)
  store i8 %59, i8* %1, align 1, !tbaa !9
  %60 = call nonnull align 8 dereferenceable(8) %"class.std::basic_ostream"* @_ZSt16__ostream_insertIcSt11char_traitsIcEERSt13basic_ostreamIT_T0_ES6_PKS3_l(%"class.std::basic_ostream"* nonnull align 8 dereferenceable(8) @_ZSt4cout, i8* nonnull %1, i64 1)
  call void @llvm.lifetime.end.p0i8(i64 1, i8* nonnull %1)
  %61 = trunc i64 %57 to i32
  %62 = icmp sgt i32 %61, 0
  %63 = add nsw i64 %57, -1
  br i1 %62, label %56, label %55, !llvm.loop !13
}

; Function Attrs: argmemonly mustprogress nofree nosync nounwind willreturn
declare void @llvm.lifetime.start.p0i8(i64 immarg, i8* nocapture) #4

declare nonnull align 8 dereferenceable(16) %"class.std::basic_istream"* @_ZNSirsERi(%"class.std::basic_istream"* nonnull align 8 dereferenceable(16), i32* nonnull align 4 dereferenceable(4)) local_unnamed_addr #0

; Function Attrs: argmemonly mustprogress nofree nounwind readonly willreturn
declare i64 @strlen(i8* nocapture) local_unnamed_addr #5

; Function Attrs: argmemonly mustprogress nofree nosync nounwind willreturn
declare void @llvm.lifetime.end.p0i8(i64 immarg, i8* nocapture) #4

declare void @_ZSt17__istream_extractRSiPcl(%"class.std::basic_istream"* nonnull align 8 dereferenceable(16), i8*, i64) local_unnamed_addr #0

declare nonnull align 8 dereferenceable(8) %"class.std::basic_ostream"* @_ZSt16__ostream_insertIcSt11char_traitsIcEERSt13basic_ostreamIT_T0_ES6_PKS3_l(%"class.std::basic_ostream"* nonnull align 8 dereferenceable(8), i8*, i64) local_unnamed_addr #0

; Function Attrs: sspstrong uwtable
define internal void @_GLOBAL__sub_I_1723.cpp() #6 section ".text.startup" {
  tail call void @_ZNSt8ios_base4InitC1Ev(%"class.std::ios_base::Init"* nonnull align 1 dereferenceable(1) @_ZStL8__ioinit)
  %1 = tail call i32 @__cxa_atexit(void (i8*)* bitcast (void (%"class.std::ios_base::Init"*)* @_ZNSt8ios_base4InitD1Ev to void (i8*)*), i8* getelementptr inbounds (%"class.std::ios_base::Init", %"class.std::ios_base::Init"* @_ZStL8__ioinit, i64 0, i32 0), i8* nonnull @__dso_handle) #7
  ret void
}


!llvm.module.flags = !{!0, !1, !2, !3}
!llvm.ident = !{!4}

!0 = !{i32 1, !"wchar_size", i32 4}
!1 = !{i32 7, !"PIC Level", i32 2}
!2 = !{i32 7, !"PIE Level", i32 2}
!3 = !{i32 7, !"uwtable", i32 1}
!4 = !{!"clang version 13.0.0"}
!5 = !{!6, !6, i64 0}
!6 = !{!"int", !7, i64 0}
!7 = !{!"omnipotent char", !8, i64 0}
!8 = !{!"Simple C++ TBAA"}
!9 = !{!7, !7, i64 0}
!10 = distinct !{!10, !11}
!11 = !{!"llvm.loop.mustprogress"}
!12 = distinct !{!12, !11}
!13 = distinct !{!13, !11}
